target datalayout = "e-m:e-p270:32:32-p271:32:32-p272:64:64-i64:64-i128:128-f80:128-n8:16:32:64-S128"
target triple = "x86_64-pc-linux-gnu"

@rv40_bias = internal constant [4 x [4 x i32]] [[4 x i32] [i32 0, i32 16, i32 32, i32 16], [4 x i32] [i32 32, i32 28, i32 32, i32 28], [4 x i32] [i32 0, i32 32, i32 16, i32 32], [4 x i32] [i32 32, i32 28, i32 32, i32 28]], align 16

; Function Attrs: nounwind uwtable
define internal void @put_rv40_chroma_mc4_c(ptr noundef %0, ptr noundef %1, i64 noundef %2, i32 noundef %3, i32 noundef %4, i32 noundef %5) #3 {
  %7 = alloca ptr, align 8
  %8 = alloca ptr, align 8
  %9 = alloca i64, align 8
  %10 = alloca i32, align 4
  %11 = alloca i32, align 4
  %12 = alloca i32, align 4
  %13 = alloca i32, align 4
  %14 = alloca i32, align 4
  %15 = alloca i32, align 4
  %16 = alloca i32, align 4
  %17 = alloca i32, align 4
  %18 = alloca i32, align 4
  %19 = alloca i32, align 4
  %20 = alloca i64, align 8
  store ptr %0, ptr %7, align 8, !tbaa !10
  store ptr %1, ptr %8, align 8, !tbaa !10
  store i64 %2, ptr %9, align 8, !tbaa !12
  store i32 %3, ptr %10, align 4, !tbaa !14
  store i32 %4, ptr %11, align 4, !tbaa !14
  store i32 %5, ptr %12, align 4, !tbaa !14
  call void @llvm.lifetime.start.p0(i64 4, ptr %13) #7
  %21 = load i32, ptr %11, align 4, !tbaa !14
  %22 = sub nsw i32 8, %21
  %23 = load i32, ptr %12, align 4, !tbaa !14
  %24 = sub nsw i32 8, %23
  %25 = mul nsw i32 %22, %24
  store i32 %25, ptr %13, align 4, !tbaa !14
  call void @llvm.lifetime.start.p0(i64 4, ptr %14) #7
  %26 = load i32, ptr %11, align 4, !tbaa !14
  %27 = load i32, ptr %12, align 4, !tbaa !14
  %28 = sub nsw i32 8, %27
  %29 = mul nsw i32 %26, %28
  store i32 %29, ptr %14, align 4, !tbaa !14
  call void @llvm.lifetime.start.p0(i64 4, ptr %15) #7
  %30 = load i32, ptr %11, align 4, !tbaa !14
  %31 = sub nsw i32 8, %30
  %32 = load i32, ptr %12, align 4, !tbaa !14
  %33 = mul nsw i32 %31, %32
  store i32 %33, ptr %15, align 4, !tbaa !14
  call void @llvm.lifetime.start.p0(i64 4, ptr %16) #7
  %34 = load i32, ptr %11, align 4, !tbaa !14
  %35 = load i32, ptr %12, align 4, !tbaa !14
  %36 = mul nsw i32 %34, %35
  store i32 %36, ptr %16, align 4, !tbaa !14
  call void @llvm.lifetime.start.p0(i64 4, ptr %17) #7
  call void @llvm.lifetime.start.p0(i64 4, ptr %18) #7
  %37 = load i32, ptr %12, align 4, !tbaa !14
  %38 = ashr i32 %37, 1
  %39 = sext i32 %38 to i64
  %40 = getelementptr inbounds [4 x [4 x i32]], ptr @rv40_bias, i64 0, i64 %39
  %41 = load i32, ptr %11, align 4, !tbaa !14
  %42 = ashr i32 %41, 1
  %43 = sext i32 %42 to i64
  %44 = getelementptr inbounds [4 x i32], ptr %40, i64 0, i64 %43
  %45 = load i32, ptr %44, align 4, !tbaa !14
  store i32 %45, ptr %18, align 4, !tbaa !14
  %46 = load i32, ptr %16, align 4, !tbaa !14
  %47 = icmp ne i32 %46, 0
  br i1 %47, label %48, label %212

48:                                               ; preds = %6
  store i32 0, ptr %17, align 4, !tbaa !14
  br label %49

49:                                               ; preds = %208, %48
  %50 = load i32, ptr %17, align 4, !tbaa !14
  %51 = load i32, ptr %10, align 4, !tbaa !14
  %52 = icmp slt i32 %50, %51
  br i1 %52, label %53, label %211

53:                                               ; preds = %49
  %54 = load i32, ptr %13, align 4, !tbaa !14
  %55 = load ptr, ptr %8, align 8, !tbaa !10
  %56 = getelementptr inbounds i8, ptr %55, i64 0
  %57 = load i8, ptr %56, align 1, !tbaa !16
  %58 = zext i8 %57 to i32
  %59 = mul nsw i32 %54, %58
  %60 = load i32, ptr %14, align 4, !tbaa !14
  %61 = load ptr, ptr %8, align 8, !tbaa !10
  %62 = getelementptr inbounds i8, ptr %61, i64 1
  %63 = load i8, ptr %62, align 1, !tbaa !16
  %64 = zext i8 %63 to i32
  %65 = mul nsw i32 %60, %64
  %66 = add nsw i32 %59, %65
  %67 = load i32, ptr %15, align 4, !tbaa !14
  %68 = load ptr, ptr %8, align 8, !tbaa !10
  %69 = load i64, ptr %9, align 8, !tbaa !12
  %70 = add nsw i64 %69, 0
  %71 = getelementptr inbounds i8, ptr %68, i64 %70
  %72 = load i8, ptr %71, align 1, !tbaa !16
  %73 = zext i8 %72 to i32
  %74 = mul nsw i32 %67, %73
  %75 = add nsw i32 %66, %74
  %76 = load i32, ptr %16, align 4, !tbaa !14
  %77 = load ptr, ptr %8, align 8, !tbaa !10
  %78 = load i64, ptr %9, align 8, !tbaa !12
  %79 = add nsw i64 %78, 1
  %80 = getelementptr inbounds i8, ptr %77, i64 %79
  %81 = load i8, ptr %80, align 1, !tbaa !16
  %82 = zext i8 %81 to i32
  %83 = mul nsw i32 %76, %82
  %84 = add nsw i32 %75, %83
  %85 = load i32, ptr %18, align 4, !tbaa !14
  %86 = add nsw i32 %84, %85
  %87 = ashr i32 %86, 6
  %88 = trunc i32 %87 to i8
  %89 = load ptr, ptr %7, align 8, !tbaa !10
  %90 = getelementptr inbounds i8, ptr %89, i64 0
  store i8 %88, ptr %90, align 1, !tbaa !16
  %91 = load i32, ptr %13, align 4, !tbaa !14
  %92 = load ptr, ptr %8, align 8, !tbaa !10
  %93 = getelementptr inbounds i8, ptr %92, i64 1
  %94 = load i8, ptr %93, align 1, !tbaa !16
  %95 = zext i8 %94 to i32
  %96 = mul nsw i32 %91, %95
  %97 = load i32, ptr %14, align 4, !tbaa !14
  %98 = load ptr, ptr %8, align 8, !tbaa !10
  %99 = getelementptr inbounds i8, ptr %98, i64 2
  %100 = load i8, ptr %99, align 1, !tbaa !16
  %101 = zext i8 %100 to i32
  %102 = mul nsw i32 %97, %101
  %103 = add nsw i32 %96, %102
  %104 = load i32, ptr %15, align 4, !tbaa !14
  %105 = load ptr, ptr %8, align 8, !tbaa !10
  %106 = load i64, ptr %9, align 8, !tbaa !12
  %107 = add nsw i64 %106, 1
  %108 = getelementptr inbounds i8, ptr %105, i64 %107
  %109 = load i8, ptr %108, align 1, !tbaa !16
  %110 = zext i8 %109 to i32
  %111 = mul nsw i32 %104, %110
  %112 = add nsw i32 %103, %111
  %113 = load i32, ptr %16, align 4, !tbaa !14
  %114 = load ptr, ptr %8, align 8, !tbaa !10
  %115 = load i64, ptr %9, align 8, !tbaa !12
  %116 = add nsw i64 %115, 2
  %117 = getelementptr inbounds i8, ptr %114, i64 %116
  %118 = load i8, ptr %117, align 1, !tbaa !16
  %119 = zext i8 %118 to i32
  %120 = mul nsw i32 %113, %119
  %121 = add nsw i32 %112, %120
  %122 = load i32, ptr %18, align 4, !tbaa !14
  %123 = add nsw i32 %121, %122
  %124 = ashr i32 %123, 6
  %125 = trunc i32 %124 to i8
  %126 = load ptr, ptr %7, align 8, !tbaa !10
  %127 = getelementptr inbounds i8, ptr %126, i64 1
  store i8 %125, ptr %127, align 1, !tbaa !16
  %128 = load i32, ptr %13, align 4, !tbaa !14
  %129 = load ptr, ptr %8, align 8, !tbaa !10
  %130 = getelementptr inbounds i8, ptr %129, i64 2
  %131 = load i8, ptr %130, align 1, !tbaa !16
  %132 = zext i8 %131 to i32
  %133 = mul nsw i32 %128, %132
  %134 = load i32, ptr %14, align 4, !tbaa !14
  %135 = load ptr, ptr %8, align 8, !tbaa !10
  %136 = getelementptr inbounds i8, ptr %135, i64 3
  %137 = load i8, ptr %136, align 1, !tbaa !16
  %138 = zext i8 %137 to i32
  %139 = mul nsw i32 %134, %138
  %140 = add nsw i32 %133, %139
  %141 = load i32, ptr %15, align 4, !tbaa !14
  %142 = load ptr, ptr %8, align 8, !tbaa !10
  %143 = load i64, ptr %9, align 8, !tbaa !12
  %144 = add nsw i64 %143, 2
  %145 = getelementptr inbounds i8, ptr %142, i64 %144
  %146 = load i8, ptr %145, align 1, !tbaa !16
  %147 = zext i8 %146 to i32
  %148 = mul nsw i32 %141, %147
  %149 = add nsw i32 %140, %148
  %150 = load i32, ptr %16, align 4, !tbaa !14
  %151 = load ptr, ptr %8, align 8, !tbaa !10
  %152 = load i64, ptr %9, align 8, !tbaa !12
  %153 = add nsw i64 %152, 3
  %154 = getelementptr inbounds i8, ptr %151, i64 %153
  %155 = load i8, ptr %154, align 1, !tbaa !16
  %156 = zext i8 %155 to i32
  %157 = mul nsw i32 %150, %156
  %158 = add nsw i32 %149, %157
  %159 = load i32, ptr %18, align 4, !tbaa !14
  %160 = add nsw i32 %158, %159
  %161 = ashr i32 %160, 6
  %162 = trunc i32 %161 to i8
  %163 = load ptr, ptr %7, align 8, !tbaa !10
  %164 = getelementptr inbounds i8, ptr %163, i64 2
  store i8 %162, ptr %164, align 1, !tbaa !16
  %165 = load i32, ptr %13, align 4, !tbaa !14
  %166 = load ptr, ptr %8, align 8, !tbaa !10
  %167 = getelementptr inbounds i8, ptr %166, i64 3
  %168 = load i8, ptr %167, align 1, !tbaa !16
  %169 = zext i8 %168 to i32
  %170 = mul nsw i32 %165, %169
  %171 = load i32, ptr %14, align 4, !tbaa !14
  %172 = load ptr, ptr %8, align 8, !tbaa !10
  %173 = getelementptr inbounds i8, ptr %172, i64 4
  %174 = load i8, ptr %173, align 1, !tbaa !16
  %175 = zext i8 %174 to i32
  %176 = mul nsw i32 %171, %175
  %177 = add nsw i32 %170, %176
  %178 = load i32, ptr %15, align 4, !tbaa !14
  %179 = load ptr, ptr %8, align 8, !tbaa !10
  %180 = load i64, ptr %9, align 8, !tbaa !12
  %181 = add nsw i64 %180, 3
  %182 = getelementptr inbounds i8, ptr %179, i64 %181
  %183 = load i8, ptr %182, align 1, !tbaa !16
  %184 = zext i8 %183 to i32
  %185 = mul nsw i32 %178, %184
  %186 = add nsw i32 %177, %185
  %187 = load i32, ptr %16, align 4, !tbaa !14
  %188 = load ptr, ptr %8, align 8, !tbaa !10
  %189 = load i64, ptr %9, align 8, !tbaa !12
  %190 = add nsw i64 %189, 4
  %191 = getelementptr inbounds i8, ptr %188, i64 %190
  %192 = load i8, ptr %191, align 1, !tbaa !16
  %193 = zext i8 %192 to i32
  %194 = mul nsw i32 %187, %193
  %195 = add nsw i32 %186, %194
  %196 = load i32, ptr %18, align 4, !tbaa !14
  %197 = add nsw i32 %195, %196
  %198 = ashr i32 %197, 6
  %199 = trunc i32 %198 to i8
  %200 = load ptr, ptr %7, align 8, !tbaa !10
  %201 = getelementptr inbounds i8, ptr %200, i64 3
  store i8 %199, ptr %201, align 1, !tbaa !16
  %202 = load i64, ptr %9, align 8, !tbaa !12
  %203 = load ptr, ptr %7, align 8, !tbaa !10
  %204 = getelementptr inbounds i8, ptr %203, i64 %202
  store ptr %204, ptr %7, align 8, !tbaa !10
  %205 = load i64, ptr %9, align 8, !tbaa !12
  %206 = load ptr, ptr %8, align 8, !tbaa !10
  %207 = getelementptr inbounds i8, ptr %206, i64 %205
  store ptr %207, ptr %8, align 8, !tbaa !10
  br label %208

208:                                              ; preds = %53
  %209 = load i32, ptr %17, align 4, !tbaa !14
  %210 = add nsw i32 %209, 1
  store i32 %210, ptr %17, align 4, !tbaa !14
  br label %49, !llvm.loop !20

211:                                              ; preds = %49
  br label %322

212:                                              ; preds = %6
  call void @llvm.lifetime.start.p0(i64 4, ptr %19) #7
  %213 = load i32, ptr %14, align 4, !tbaa !14
  %214 = load i32, ptr %15, align 4, !tbaa !14
  %215 = add nsw i32 %213, %214
  store i32 %215, ptr %19, align 4, !tbaa !14
  call void @llvm.lifetime.start.p0(i64 8, ptr %20) #7
  %216 = load i32, ptr %15, align 4, !tbaa !14
  %217 = icmp ne i32 %216, 0
  br i1 %217, label %218, label %220

218:                                              ; preds = %212
  %219 = load i64, ptr %9, align 8, !tbaa !12
  br label %221

220:                                              ; preds = %212
  br label %221

221:                                              ; preds = %220, %218
  %222 = phi i64 [ %219, %218 ], [ 1, %220 ]
  store i64 %222, ptr %20, align 8, !tbaa !12
  store i32 0, ptr %17, align 4, !tbaa !14
  br label %223

223:                                              ; preds = %318, %221
  %224 = load i32, ptr %17, align 4, !tbaa !14
  %225 = load i32, ptr %10, align 4, !tbaa !14
  %226 = icmp slt i32 %224, %225
  br i1 %226, label %227, label %321

227:                                              ; preds = %223
  %228 = load i32, ptr %13, align 4, !tbaa !14
  %229 = load ptr, ptr %8, align 8, !tbaa !10
  %230 = getelementptr inbounds i8, ptr %229, i64 0
  %231 = load i8, ptr %230, align 1, !tbaa !16
  %232 = zext i8 %231 to i32
  %233 = mul nsw i32 %228, %232
  %234 = load i32, ptr %19, align 4, !tbaa !14
  %235 = load ptr, ptr %8, align 8, !tbaa !10
  %236 = load i64, ptr %20, align 8, !tbaa !12
  %237 = add nsw i64 %236, 0
  %238 = getelementptr inbounds i8, ptr %235, i64 %237
  %239 = load i8, ptr %238, align 1, !tbaa !16
  %240 = zext i8 %239 to i32
  %241 = mul nsw i32 %234, %240
  %242 = add nsw i32 %233, %241
  %243 = load i32, ptr %18, align 4, !tbaa !14
  %244 = add nsw i32 %242, %243
  %245 = ashr i32 %244, 6
  %246 = trunc i32 %245 to i8
  %247 = load ptr, ptr %7, align 8, !tbaa !10
  %248 = getelementptr inbounds i8, ptr %247, i64 0
  store i8 %246, ptr %248, align 1, !tbaa !16
  %249 = load i32, ptr %13, align 4, !tbaa !14
  %250 = load ptr, ptr %8, align 8, !tbaa !10
  %251 = getelementptr inbounds i8, ptr %250, i64 1
  %252 = load i8, ptr %251, align 1, !tbaa !16
  %253 = zext i8 %252 to i32
  %254 = mul nsw i32 %249, %253
  %255 = load i32, ptr %19, align 4, !tbaa !14
  %256 = load ptr, ptr %8, align 8, !tbaa !10
  %257 = load i64, ptr %20, align 8, !tbaa !12
  %258 = add nsw i64 %257, 1
  %259 = getelementptr inbounds i8, ptr %256, i64 %258
  %260 = load i8, ptr %259, align 1, !tbaa !16
  %261 = zext i8 %260 to i32
  %262 = mul nsw i32 %255, %261
  %263 = add nsw i32 %254, %262
  %264 = load i32, ptr %18, align 4, !tbaa !14
  %265 = add nsw i32 %263, %264
  %266 = ashr i32 %265, 6
  %267 = trunc i32 %266 to i8
  %268 = load ptr, ptr %7, align 8, !tbaa !10
  %269 = getelementptr inbounds i8, ptr %268, i64 1
  store i8 %267, ptr %269, align 1, !tbaa !16
  %270 = load i32, ptr %13, align 4, !tbaa !14
  %271 = load ptr, ptr %8, align 8, !tbaa !10
  %272 = getelementptr inbounds i8, ptr %271, i64 2
  %273 = load i8, ptr %272, align 1, !tbaa !16
  %274 = zext i8 %273 to i32
  %275 = mul nsw i32 %270, %274
  %276 = load i32, ptr %19, align 4, !tbaa !14
  %277 = load ptr, ptr %8, align 8, !tbaa !10
  %278 = load i64, ptr %20, align 8, !tbaa !12
  %279 = add nsw i64 %278, 2
  %280 = getelementptr inbounds i8, ptr %277, i64 %279
  %281 = load i8, ptr %280, align 1, !tbaa !16
  %282 = zext i8 %281 to i32
  %283 = mul nsw i32 %276, %282
  %284 = add nsw i32 %275, %283
  %285 = load i32, ptr %18, align 4, !tbaa !14
  %286 = add nsw i32 %284, %285
  %287 = ashr i32 %286, 6
  %288 = trunc i32 %287 to i8
  %289 = load ptr, ptr %7, align 8, !tbaa !10
  %290 = getelementptr inbounds i8, ptr %289, i64 2
  store i8 %288, ptr %290, align 1, !tbaa !16
  %291 = load i32, ptr %13, align 4, !tbaa !14
  %292 = load ptr, ptr %8, align 8, !tbaa !10
  %293 = getelementptr inbounds i8, ptr %292, i64 3
  %294 = load i8, ptr %293, align 1, !tbaa !16
  %295 = zext i8 %294 to i32
  %296 = mul nsw i32 %291, %295
  %297 = load i32, ptr %19, align 4, !tbaa !14
  %298 = load ptr, ptr %8, align 8, !tbaa !10
  %299 = load i64, ptr %20, align 8, !tbaa !12
  %300 = add nsw i64 %299, 3
  %301 = getelementptr inbounds i8, ptr %298, i64 %300
  %302 = load i8, ptr %301, align 1, !tbaa !16
  %303 = zext i8 %302 to i32
  %304 = mul nsw i32 %297, %303
  %305 = add nsw i32 %296, %304
  %306 = load i32, ptr %18, align 4, !tbaa !14
  %307 = add nsw i32 %305, %306
  %308 = ashr i32 %307, 6
  %309 = trunc i32 %308 to i8
  %310 = load ptr, ptr %7, align 8, !tbaa !10
  %311 = getelementptr inbounds i8, ptr %310, i64 3
  store i8 %309, ptr %311, align 1, !tbaa !16
  %312 = load i64, ptr %9, align 8, !tbaa !12
  %313 = load ptr, ptr %7, align 8, !tbaa !10
  %314 = getelementptr inbounds i8, ptr %313, i64 %312
  store ptr %314, ptr %7, align 8, !tbaa !10
  %315 = load i64, ptr %9, align 8, !tbaa !12
  %316 = load ptr, ptr %8, align 8, !tbaa !10
  %317 = getelementptr inbounds i8, ptr %316, i64 %315
  store ptr %317, ptr %8, align 8, !tbaa !10
  br label %318

318:                                              ; preds = %227
  %319 = load i32, ptr %17, align 4, !tbaa !14
  %320 = add nsw i32 %319, 1
  store i32 %320, ptr %17, align 4, !tbaa !14
  br label %223, !llvm.loop !21

321:                                              ; preds = %223
  call void @llvm.lifetime.end.p0(i64 8, ptr %20) #7
  call void @llvm.lifetime.end.p0(i64 4, ptr %19) #7
  br label %322

322:                                              ; preds = %321, %211
  call void @llvm.lifetime.end.p0(i64 4, ptr %18) #7
  call void @llvm.lifetime.end.p0(i64 4, ptr %17) #7
  call void @llvm.lifetime.end.p0(i64 4, ptr %16) #7
  call void @llvm.lifetime.end.p0(i64 4, ptr %15) #7
  call void @llvm.lifetime.end.p0(i64 4, ptr %14) #7
  call void @llvm.lifetime.end.p0(i64 4, ptr %13) #7
  ret void
}