; Function Attrs: nofree norecurse nosync nounwind memory(argmem: readwrite) uwtable
define internal void @put_rv40_chroma_mc4_c(ptr noundef writeonly captures(none) %0, ptr noundef readonly captures(none) %1, i64 noundef %2, i32 noundef %3, i32 noundef %4, i32 noundef %5) #3 {
  %7 = sub nsw i32 8, %4
  %8 = sub nsw i32 8, %5
  %9 = mul nsw i32 %8, %7
  %10 = mul nsw i32 %8, %4
  %11 = mul nsw i32 %7, %5
  %12 = mul nsw i32 %5, %4
  %13 = ashr i32 %5, 1
  %14 = sext i32 %13 to i64
  %15 = ashr i32 %4, 1
  %16 = sext i32 %15 to i64
  %17 = getelementptr inbounds [4 x [4 x i32]], ptr @rv40_bias, i64 0, i64 %14, i64 %16
  %18 = load i32, ptr %17, align 4, !tbaa !9
  %.not = icmp eq i32 %12, 0
  br i1 %.not, label %106, label %.preheader

.preheader:                                       ; preds = %6
  %19 = icmp sgt i32 %3, 0
  br i1 %19, label %.lr.ph, label %.loopexit

.lr.ph:                                           ; preds = %.preheader, %.lr.ph
  %.0113 = phi ptr [ %104, %.lr.ph ], [ %0, %.preheader ]
  %.0104112 = phi ptr [ %27, %.lr.ph ], [ %1, %.preheader ]
  %.0106111 = phi i32 [ %105, %.lr.ph ], [ 0, %.preheader ]
  %20 = load i8, ptr %.0104112, align 1, !tbaa !8
  %21 = zext i8 %20 to i32
  %22 = mul nsw i32 %9, %21
  %23 = getelementptr inbounds nuw i8, ptr %.0104112, i64 1
  %24 = load i8, ptr %23, align 1, !tbaa !8
  %25 = zext i8 %24 to i32
  %26 = mul nsw i32 %10, %25
  %27 = getelementptr inbounds i8, ptr %.0104112, i64 %2
  %28 = load i8, ptr %27, align 1, !tbaa !8
  %29 = zext i8 %28 to i32
  %30 = mul nsw i32 %11, %29
  %31 = getelementptr i8, ptr %27, i64 1
  %32 = load i8, ptr %31, align 1, !tbaa !8
  %33 = zext i8 %32 to i32
  %34 = mul nsw i32 %12, %33
  %35 = add i32 %22, %18
  %36 = add i32 %35, %26
  %37 = add i32 %36, %30
  %38 = add i32 %37, %34
  %39 = lshr i32 %38, 6
  %40 = trunc i32 %39 to i8
  store i8 %40, ptr %.0113, align 1, !tbaa !8
  %41 = load i8, ptr %23, align 1, !tbaa !8
  %42 = zext i8 %41 to i32
  %43 = mul nsw i32 %9, %42
  %44 = getelementptr inbounds nuw i8, ptr %.0104112, i64 2
  %45 = load i8, ptr %44, align 1, !tbaa !8
  %46 = zext i8 %45 to i32
  %47 = mul nsw i32 %10, %46
  %48 = load i8, ptr %31, align 1, !tbaa !8
  %49 = zext i8 %48 to i32
  %50 = mul nsw i32 %11, %49
  %51 = getelementptr i8, ptr %27, i64 2
  %52 = load i8, ptr %51, align 1, !tbaa !8
  %53 = zext i8 %52 to i32
  %54 = mul nsw i32 %12, %53
  %55 = add i32 %43, %18
  %56 = add i32 %55, %47
  %57 = add i32 %56, %50
  %58 = add i32 %57, %54
  %59 = lshr i32 %58, 6
  %60 = trunc i32 %59 to i8
  %61 = getelementptr inbounds nuw i8, ptr %.0113, i64 1
  store i8 %60, ptr %61, align 1, !tbaa !8
  %62 = load i8, ptr %44, align 1, !tbaa !8
  %63 = zext i8 %62 to i32
  %64 = mul nsw i32 %9, %63
  %65 = getelementptr inbounds nuw i8, ptr %.0104112, i64 3
  %66 = load i8, ptr %65, align 1, !tbaa !8
  %67 = zext i8 %66 to i32
  %68 = mul nsw i32 %10, %67
  %69 = load i8, ptr %51, align 1, !tbaa !8
  %70 = zext i8 %69 to i32
  %71 = mul nsw i32 %11, %70
  %72 = getelementptr i8, ptr %27, i64 3
  %73 = load i8, ptr %72, align 1, !tbaa !8
  %74 = zext i8 %73 to i32
  %75 = mul nsw i32 %12, %74
  %76 = add i32 %64, %18
  %77 = add i32 %76, %68
  %78 = add i32 %77, %71
  %79 = add i32 %78, %75
  %80 = lshr i32 %79, 6
  %81 = trunc i32 %80 to i8
  %82 = getelementptr inbounds nuw i8, ptr %.0113, i64 2
  store i8 %81, ptr %82, align 1, !tbaa !8
  %83 = load i8, ptr %65, align 1, !tbaa !8
  %84 = zext i8 %83 to i32
  %85 = mul nsw i32 %9, %84
  %86 = getelementptr inbounds nuw i8, ptr %.0104112, i64 4
  %87 = load i8, ptr %86, align 1, !tbaa !8
  %88 = zext i8 %87 to i32
  %89 = mul nsw i32 %10, %88
  %90 = load i8, ptr %72, align 1, !tbaa !8
  %91 = zext i8 %90 to i32
  %92 = mul nsw i32 %11, %91
  %93 = getelementptr i8, ptr %27, i64 4
  %94 = load i8, ptr %93, align 1, !tbaa !8
  %95 = zext i8 %94 to i32
  %96 = mul nsw i32 %12, %95
  %97 = add i32 %85, %18
  %98 = add i32 %97, %89
  %99 = add i32 %98, %92
  %100 = add i32 %99, %96
  %101 = lshr i32 %100, 6
  %102 = trunc i32 %101 to i8
  %103 = getelementptr inbounds nuw i8, ptr %.0113, i64 3
  store i8 %102, ptr %103, align 1, !tbaa !8
  %104 = getelementptr inbounds i8, ptr %.0113, i64 %2
  %105 = add nuw nsw i32 %.0106111, 1
  %exitcond.not = icmp eq i32 %105, %3
  br i1 %exitcond.not, label %.loopexit, label %.lr.ph, !llvm.loop !18

106:                                              ; preds = %6
  %107 = add nsw i32 %10, %11
  %.not109 = icmp eq i32 %11, 0
  %108 = select i1 %.not109, i64 1, i64 %2
  %109 = icmp sgt i32 %3, 0
  br i1 %109, label %.lr.ph117, label %.loopexit

.lr.ph117:                                        ; preds = %106, %.lr.ph117
  %.1116 = phi ptr [ %160, %.lr.ph117 ], [ %0, %106 ]
  %.1105115 = phi ptr [ %161, %.lr.ph117 ], [ %1, %106 ]
  %.1107114 = phi i32 [ %162, %.lr.ph117 ], [ 0, %106 ]
  %110 = load i8, ptr %.1105115, align 1, !tbaa !8
  %111 = zext i8 %110 to i32
  %112 = mul nsw i32 %9, %111
  %113 = getelementptr inbounds i8, ptr %.1105115, i64 %108
  %114 = load i8, ptr %113, align 1, !tbaa !8
  %115 = zext i8 %114 to i32
  %116 = mul nsw i32 %107, %115
  %117 = add i32 %112, %18
  %118 = add i32 %117, %116
  %119 = lshr i32 %118, 6
  %120 = trunc i32 %119 to i8
  store i8 %120, ptr %.1116, align 1, !tbaa !8
  %121 = getelementptr inbounds nuw i8, ptr %.1105115, i64 1
  %122 = load i8, ptr %121, align 1, !tbaa !8
  %123 = zext i8 %122 to i32
  %124 = mul nsw i32 %9, %123
  %125 = getelementptr i8, ptr %113, i64 1
  %126 = load i8, ptr %125, align 1, !tbaa !8
  %127 = zext i8 %126 to i32
  %128 = mul nsw i32 %107, %127
  %129 = add i32 %124, %18
  %130 = add i32 %129, %128
  %131 = lshr i32 %130, 6
  %132 = trunc i32 %131 to i8
  %133 = getelementptr inbounds nuw i8, ptr %.1116, i64 1
  store i8 %132, ptr %133, align 1, !tbaa !8
  %134 = getelementptr inbounds nuw i8, ptr %.1105115, i64 2
  %135 = load i8, ptr %134, align 1, !tbaa !8
  %136 = zext i8 %135 to i32
  %137 = mul nsw i32 %9, %136
  %138 = getelementptr i8, ptr %113, i64 2
  %139 = load i8, ptr %138, align 1, !tbaa !8
  %140 = zext i8 %139 to i32
  %141 = mul nsw i32 %107, %140
  %142 = add i32 %137, %18
  %143 = add i32 %142, %141
  %144 = lshr i32 %143, 6
  %145 = trunc i32 %144 to i8
  %146 = getelementptr inbounds nuw i8, ptr %.1116, i64 2
  store i8 %145, ptr %146, align 1, !tbaa !8
  %147 = getelementptr inbounds nuw i8, ptr %.1105115, i64 3
  %148 = load i8, ptr %147, align 1, !tbaa !8
  %149 = zext i8 %148 to i32
  %150 = mul nsw i32 %9, %149
  %151 = getelementptr i8, ptr %113, i64 3
  %152 = load i8, ptr %151, align 1, !tbaa !8
  %153 = zext i8 %152 to i32
  %154 = mul nsw i32 %107, %153
  %155 = add i32 %150, %18
  %156 = add i32 %155, %154
  %157 = lshr i32 %156, 6
  %158 = trunc i32 %157 to i8
  %159 = getelementptr inbounds nuw i8, ptr %.1116, i64 3
  store i8 %158, ptr %159, align 1, !tbaa !8
  %160 = getelementptr inbounds i8, ptr %.1116, i64 %2
  %161 = getelementptr inbounds i8, ptr %.1105115, i64 %2
  %162 = add nuw nsw i32 %.1107114, 1
  %exitcond119.not = icmp eq i32 %162, %3
  br i1 %exitcond119.not, label %.loopexit, label %.lr.ph117, !llvm.loop !19

.loopexit:                                        ; preds = %.lr.ph, %.lr.ph117, %.preheader, %106
  ret void
}